; Function Attrs: mustprogress nofree norecurse nosync nounwind willreturn memory(read, argmem: readwrite, inaccessiblemem: none) uwtable
define internal noundef i32 @H5FA__cache_dblock_image_len(ptr noundef readonly captures(none) %0, ptr noundef writeonly captures(none) %1) #1 {
  %3 = load i8, ptr @H5FA_init_g, align 1, !tbaa !3, !range !7, !noundef !8
  %4 = trunc nuw i8 %3 to i1
  %5 = load i8, ptr @H5_libterm_g, align 1, !range !7
  %6 = trunc nuw i8 %5 to i1
  %7 = xor i1 %6, true
  %8 = select i1 %4, i1 true, i1 %7
  br i1 %8, label %9, label %24, !prof !9

9:                                                ; preds = %2
  %10 = getelementptr inbounds nuw i8, ptr %0, i64 296
  %11 = load i64, ptr %10, align 8, !tbaa !61
  %.not = icmp eq i64 %11, 0
  br i1 %.not, label %12, label %15

12:                                               ; preds = %9
  %13 = getelementptr inbounds nuw i8, ptr %0, i64 288
  %14 = load i64, ptr %13, align 8, !tbaa !68
  br label %.sink.split

15:                                               ; preds = %9
  %16 = getelementptr inbounds nuw i8, ptr %0, i64 264
  %17 = load ptr, ptr %16, align 8, !tbaa !67
  %18 = getelementptr inbounds nuw i8, ptr %17, i64 352
  %19 = load i64, ptr %18, align 8, !tbaa !43
  %20 = add i64 %19, 10
  %21 = getelementptr inbounds nuw i8, ptr %0, i64 328
  %22 = load i64, ptr %21, align 8, !tbaa !63
  %23 = add i64 %20, %22
  br label %.sink.split

.sink.split:                                      ; preds = %15, %12
  %.sink = phi i64 [ %14, %12 ], [ %23, %15 ]
  store i64 %.sink, ptr %1, align 8, !tbaa !15
  br label %24

24:                                               ; preds = %.sink.split, %2
  ret i32 0
}